target datalayout = "e-m:e-p270:32:32-p271:32:32-p272:64:64-i64:64-i128:128-f80:128-n8:16:32:64-S128"
target triple = "x86_64-pc-linux-gnu"

%class.AdaptiveWeightedAverage = type { float, i32, i32, i8, float }
%class.ThreadLocalAllocBuffer = type <{ ptr, ptr, ptr, ptr, ptr, i64, i64, i64, i64, i32, i32, i32, i32, i64, %class.AdaptiveWeightedAverage, [4 x i8] }>

@TLABAllocationWeight = external global i64, align 8

; Function Attrs: mustprogress nounwind uwtable
define linkonce_odr hidden void @_ZN23AdaptiveWeightedAverageC2Ejf(ptr noundef nonnull align 4 dereferenceable(20) %0, i32 noundef %1, float noundef %2) unnamed_addr #1 comdat align 2 {
  %4 = alloca ptr, align 8
  %5 = alloca i32, align 4
  %6 = alloca float, align 4
  store ptr %0, ptr %4, align 8
  store i32 %1, ptr %5, align 4
  store float %2, ptr %6, align 4
  %7 = load ptr, ptr %4, align 8
  %8 = getelementptr inbounds %class.AdaptiveWeightedAverage, ptr %7, i32 0, i32 0
  %9 = load float, ptr %6, align 4
  store float %9, ptr %8, align 4
  %10 = getelementptr inbounds %class.AdaptiveWeightedAverage, ptr %7, i32 0, i32 1
  store i32 0, ptr %10, align 4
  %11 = getelementptr inbounds %class.AdaptiveWeightedAverage, ptr %7, i32 0, i32 2
  %12 = load i32, ptr %5, align 4
  store i32 %12, ptr %11, align 4
  %13 = getelementptr inbounds %class.AdaptiveWeightedAverage, ptr %7, i32 0, i32 3
  store i8 0, ptr %13, align 4
  %14 = getelementptr inbounds %class.AdaptiveWeightedAverage, ptr %7, i32 0, i32 4
  store float 0.000000e+00, ptr %14, align 4
  ret void
}

; Function Attrs: mustprogress nounwind uwtable
define hidden void @_ZN22ThreadLocalAllocBufferC2Ev(ptr noundef nonnull align 8 dereferenceable(116) %0) unnamed_addr #1 align 2 {
  %2 = alloca ptr, align 8
  store ptr %0, ptr %2, align 8
  %3 = load ptr, ptr %2, align 8
  %4 = getelementptr inbounds %class.ThreadLocalAllocBuffer, ptr %3, i32 0, i32 0
  store ptr null, ptr %4, align 8
  %5 = getelementptr inbounds %class.ThreadLocalAllocBuffer, ptr %3, i32 0, i32 1
  store ptr null, ptr %5, align 8
  %6 = getelementptr inbounds %class.ThreadLocalAllocBuffer, ptr %3, i32 0, i32 2
  store ptr null, ptr %6, align 8
  %7 = getelementptr inbounds %class.ThreadLocalAllocBuffer, ptr %3, i32 0, i32 3
  store ptr null, ptr %7, align 8
  %8 = getelementptr inbounds %class.ThreadLocalAllocBuffer, ptr %3, i32 0, i32 4
  store ptr null, ptr %8, align 8
  %9 = getelementptr inbounds %class.ThreadLocalAllocBuffer, ptr %3, i32 0, i32 5
  store i64 0, ptr %9, align 8
  %10 = getelementptr inbounds %class.ThreadLocalAllocBuffer, ptr %3, i32 0, i32 6
  store i64 0, ptr %10, align 8
  %11 = getelementptr inbounds %class.ThreadLocalAllocBuffer, ptr %3, i32 0, i32 7
  store i64 0, ptr %11, align 8
  %12 = getelementptr inbounds %class.ThreadLocalAllocBuffer, ptr %3, i32 0, i32 8
  store i64 0, ptr %12, align 8
  %13 = getelementptr inbounds %class.ThreadLocalAllocBuffer, ptr %3, i32 0, i32 9
  store i32 0, ptr %13, align 8
  %14 = getelementptr inbounds %class.ThreadLocalAllocBuffer, ptr %3, i32 0, i32 10
  store i32 0, ptr %14, align 4
  %15 = getelementptr inbounds %class.ThreadLocalAllocBuffer, ptr %3, i32 0, i32 11
  store i32 0, ptr %15, align 8
  %16 = getelementptr inbounds %class.ThreadLocalAllocBuffer, ptr %3, i32 0, i32 12
  store i32 0, ptr %16, align 4
  %17 = getelementptr inbounds %class.ThreadLocalAllocBuffer, ptr %3, i32 0, i32 13
  store i64 0, ptr %17, align 8
  %18 = getelementptr inbounds %class.ThreadLocalAllocBuffer, ptr %3, i32 0, i32 14
  %19 = load i64, ptr @TLABAllocationWeight, align 8
  %20 = trunc i64 %19 to i32
  call void @_ZN23AdaptiveWeightedAverageC2Ejf(ptr noundef nonnull align 4 dereferenceable(20) %18, i32 noundef %20, float noundef 0.000000e+00)
  ret void
}