; Function Attrs: mustprogress nofree norecurse nosync nounwind willreturn memory(read, argmem: write, inaccessiblemem: none) uwtable
define hidden void @_ZN22ThreadLocalAllocBufferC2Ev(ptr nocapture noundef nonnull writeonly align 8 dereferenceable(116) %0) unnamed_addr #0 align 2 {
  %2 = getelementptr inbounds i8, ptr %0, i64 96
  tail call void @llvm.memset.p0.i64(ptr noundef nonnull align 8 dereferenceable(96) %0, i8 0, i64 96, i1 false)
  %3 = load i64, ptr @TLABAllocationWeight, align 8
  %4 = trunc i64 %3 to i32
  store float 0.000000e+00, ptr %2, align 8
  %5 = getelementptr inbounds i8, ptr %0, i64 100
  store i32 0, ptr %5, align 4
  %6 = getelementptr inbounds i8, ptr %0, i64 104
  store i32 %4, ptr %6, align 8
  %7 = getelementptr inbounds i8, ptr %0, i64 108
  store i8 0, ptr %7, align 4
  %8 = getelementptr inbounds i8, ptr %0, i64 112
  store float 0.000000e+00, ptr %8, align 8
  ret void
}